EXPORTS
	_ZN17COmxILGenericILIF10InitializeEv @ 1 NONAME
	_ZN17COmxILGenericILIF11SendCommandERK10TILCommand @ 2 NONAME
	_ZN17COmxILGenericILIF12EventHandlerE13OMX_EVENTTYPEmmPv @ 3 NONAME
	_ZN17COmxILGenericILIF12OmxSetConfigE13OMX_INDEXTYPEPv @ 4 NONAME
	_ZN17COmxILGenericILIF12SetExtConfigERK6TDesC8RK9TILStructPK18MILComponentPortIf @ 5 NONAME
	_ZN17COmxILGenericILIF12UnInitializeEv @ 6 NONAME
	_ZN17COmxILGenericILIF13FlushAllPortsEv @ 7 NONAME
	_ZN17COmxILGenericILIF14FillBufferDoneEP10CMMFBufferi @ 8 NONAME
	_ZN17COmxILGenericILIF15CustomInterfaceE4TUid @ 9 NONAME
	_ZN17COmxILGenericILIF15EmptyBufferDoneEPK10CMMFBufferi @ 10 NONAME
	_ZN17COmxILGenericILIF15OmxSetParameterE13OMX_INDEXTYPEPv @ 11 NONAME
	_ZN17COmxILGenericILIF16CreateComponentLERK4TUidR13MILIfObserver @ 12 NONAME
	_ZN17COmxILGenericILIF16CreateComponentLERK6TDesC8R13MILIfObserver @ 13 NONAME
	_ZN17COmxILGenericILIF16ReleaseComponentEv @ 14 NONAME
	_ZN17COmxILGenericILIF18SetComponentIfRoleERK4TUid @ 15 NONAME
	_ZN17COmxILGenericILIF18SetComponentIfRoleERK6TDesC8 @ 16 NONAME
	_ZN17COmxILGenericILIF4StopEv @ 17 NONAME
	_ZN17COmxILGenericILIF5PauseEv @ 18 NONAME
	_ZN17COmxILGenericILIF7ExecuteEv @ 19 NONAME
	_ZN17COmxILGenericILIF9SetConfigERK9TILStructPK18MILComponentPortIf @ 20 NONAME
	_ZN17COmxILGenericILIFC2Ev @ 21 NONAME
	_ZN17COmxILGenericILIFD0Ev @ 22 NONAME
	_ZN17COmxILGenericILIFD1Ev @ 23 NONAME
	_ZN17COmxILGenericILIFD2Ev @ 24 NONAME
	_ZNK17COmxILGenericILIF12GetExtConfigERK6TDesC8R9TILStructPK18MILComponentPortIf @ 25 NONAME
	_ZNK17COmxILGenericILIF12OmxGetConfigE13OMX_INDEXTYPEPv @ 26 NONAME
	_ZNK17COmxILGenericILIF15OmxGetParameterE13OMX_INDEXTYPEPv @ 27 NONAME
	_ZNK17COmxILGenericILIF17ComponentRoleEnumER5TPtr8m @ 28 NONAME
	_ZNK17COmxILGenericILIF18GetComponentIfRoleER4TUid @ 29 NONAME
	_ZNK17COmxILGenericILIF18GetComponentIfRoleER5TDes8 @ 30 NONAME
	_ZNK17COmxILGenericILIF19GetComponentVersionER19TILComponentVersion @ 31 NONAME
	_ZNK17COmxILGenericILIF20OmxGetExtensionIndexERK6TDesC8P13OMX_INDEXTYPE @ 32 NONAME
	_ZNK17COmxILGenericILIF22GetComponentInputPortsER13RPointerArrayI18MILComponentPortIfE @ 33 NONAME
	_ZNK17COmxILGenericILIF23GetComponentOutputPortsER13RPointerArrayI18MILComponentPortIfE @ 34 NONAME
	_ZNK17COmxILGenericILIF8GetStateER17TILComponentState @ 35 NONAME
	_ZNK17COmxILGenericILIF9GetConfigER9TILStructPK18MILComponentPortIf @ 36 NONAME
	_ZTI13COmxCallbacks @ 37 NONAME
	_ZTI17COmxBufferManager @ 38 NONAME
	_ZTI17COmxILGenericILIF @ 39 NONAME
	_ZTI21COmxILGenericPortILIF @ 40 NONAME
	_ZTIN17COmxBufferManager10COmxBufferE @ 41 NONAME
	_ZTIN17COmxILGenericILIF5CBodyE @ 42 NONAME
	_ZTV13COmxCallbacks @ 43 NONAME
	_ZTV17COmxBufferManager @ 44 NONAME
	_ZTV17COmxILGenericILIF @ 45 NONAME
	_ZTV21COmxILGenericPortILIF @ 46 NONAME
	_ZTVN17COmxBufferManager10COmxBufferE @ 47 NONAME
	_ZTVN17COmxILGenericILIF5CBodyE @ 48 NONAME
	_ZThn4_N17COmxILGenericILIF10InitializeEv @ 49 NONAME
	_ZThn4_N17COmxILGenericILIF11SendCommandERK10TILCommand @ 50 NONAME
	_ZThn4_N17COmxILGenericILIF12UnInitializeEv @ 51 NONAME
	_ZThn4_N17COmxILGenericILIF13FlushAllPortsEv @ 52 NONAME
	_ZThn4_N17COmxILGenericILIF15CustomInterfaceE4TUid @ 53 NONAME
	_ZThn4_N17COmxILGenericILIF16CreateComponentLERK4TUidR13MILIfObserver @ 54 NONAME
	_ZThn4_N17COmxILGenericILIF16CreateComponentLERK6TDesC8R13MILIfObserver @ 55 NONAME
	_ZThn4_N17COmxILGenericILIF16ReleaseComponentEv @ 56 NONAME
	_ZThn4_N17COmxILGenericILIF18SetComponentIfRoleERK4TUid @ 57 NONAME
	_ZThn4_N17COmxILGenericILIF18SetComponentIfRoleERK6TDesC8 @ 58 NONAME
	_ZThn4_N17COmxILGenericILIF4StopEv @ 59 NONAME
	_ZThn4_N17COmxILGenericILIF5PauseEv @ 60 NONAME
	_ZThn4_N17COmxILGenericILIF7ExecuteEv @ 61 NONAME
	_ZThn4_NK17COmxILGenericILIF17ComponentRoleEnumER5TPtr8m @ 62 NONAME
	_ZThn4_NK17COmxILGenericILIF18GetComponentIfRoleER4TUid @ 63 NONAME
	_ZThn4_NK17COmxILGenericILIF18GetComponentIfRoleER5TDes8 @ 64 NONAME
	_ZThn4_NK17COmxILGenericILIF19GetComponentVersionER19TILComponentVersion @ 65 NONAME
	_ZThn4_NK17COmxILGenericILIF22GetComponentInputPortsER13RPointerArrayI18MILComponentPortIfE @ 66 NONAME
	_ZThn4_NK17COmxILGenericILIF23GetComponentOutputPortsER13RPointerArrayI18MILComponentPortIfE @ 67 NONAME
	_ZThn4_NK17COmxILGenericILIF8GetStateER17TILComponentState @ 68 NONAME
	_ZThn8_N17COmxILGenericILIF12EventHandlerE13OMX_EVENTTYPEmmPv @ 69 NONAME
	_ZThn8_N17COmxILGenericILIF14FillBufferDoneEP10CMMFBufferi @ 70 NONAME
	_ZThn8_N17COmxILGenericILIF15EmptyBufferDoneEPK10CMMFBufferi @ 71 NONAME

