EXPORTS
	_ZN19COmxILDummyBaseILIF10InitializeEv @ 1 NONAME
	_ZN19COmxILDummyBaseILIF11SendCommandERK10TILCommand @ 2 NONAME
	_ZN19COmxILDummyBaseILIF12EventHandlerE13OMX_EVENTTYPEmmPv @ 3 NONAME
	_ZN19COmxILDummyBaseILIF12OmxSetConfigE13OMX_INDEXTYPEPv @ 4 NONAME
	_ZN19COmxILDummyBaseILIF12SetExtConfigERK6TDesC8RK9TILStructPK18MILComponentPortIf @ 5 NONAME
	_ZN19COmxILDummyBaseILIF12UnInitializeEv @ 6 NONAME
	_ZN19COmxILDummyBaseILIF13FlushAllPortsEv @ 7 NONAME
	_ZN19COmxILDummyBaseILIF14FillBufferDoneEP10CMMFBufferi @ 8 NONAME
	_ZN19COmxILDummyBaseILIF15CustomInterfaceE4TUid @ 9 NONAME
	_ZN19COmxILDummyBaseILIF15EmptyBufferDoneEPK10CMMFBufferi @ 10 NONAME
	_ZN19COmxILDummyBaseILIF15OmxSetParameterE13OMX_INDEXTYPEPv @ 11 NONAME
	_ZN19COmxILDummyBaseILIF16CreateComponentLERK4TUidR13MILIfObserver @ 12 NONAME
	_ZN19COmxILDummyBaseILIF16CreateComponentLERK6TDesC8R13MILIfObserver @ 13 NONAME
	_ZN19COmxILDummyBaseILIF16ReleaseComponentEv @ 14 NONAME
	_ZN19COmxILDummyBaseILIF18SetComponentIfRoleERK4TUid @ 15 NONAME
	_ZN19COmxILDummyBaseILIF18SetComponentIfRoleERK6TDesC8 @ 16 NONAME
	_ZN19COmxILDummyBaseILIF4StopEv @ 17 NONAME
	_ZN19COmxILDummyBaseILIF5PauseEv @ 18 NONAME
	_ZN19COmxILDummyBaseILIF7ExecuteEv @ 19 NONAME
	_ZN19COmxILDummyBaseILIF9SetConfigERK9TILStructPK18MILComponentPortIf @ 20 NONAME
	_ZN19COmxILDummyBaseILIFC1Ev @ 21 NONAME
	_ZN19COmxILDummyBaseILIFC2Ev @ 22 NONAME
	_ZN19COmxILDummyBaseILIFD0Ev @ 23 NONAME
	_ZN19COmxILDummyBaseILIFD1Ev @ 24 NONAME
	_ZN19COmxILDummyBaseILIFD2Ev @ 25 NONAME
	_ZNK19COmxILDummyBaseILIF12GetExtConfigERK6TDesC8R9TILStructPK18MILComponentPortIf @ 26 NONAME
	_ZNK19COmxILDummyBaseILIF12OmxGetConfigE13OMX_INDEXTYPEPv @ 27 NONAME
	_ZNK19COmxILDummyBaseILIF15OmxGetParameterE13OMX_INDEXTYPEPv @ 28 NONAME
	_ZNK19COmxILDummyBaseILIF17ComponentRoleEnumER5TPtr8m @ 29 NONAME
	_ZNK19COmxILDummyBaseILIF18GetComponentIfRoleER4TUid @ 30 NONAME
	_ZNK19COmxILDummyBaseILIF18GetComponentIfRoleER5TDes8 @ 31 NONAME
	_ZNK19COmxILDummyBaseILIF19GetComponentVersionER19TILComponentVersion @ 32 NONAME
	_ZNK19COmxILDummyBaseILIF20OmxGetExtensionIndexERK6TDesC8P13OMX_INDEXTYPE @ 33 NONAME
	_ZNK19COmxILDummyBaseILIF22GetComponentInputPortsER13RPointerArrayI18MILComponentPortIfE @ 34 NONAME
	_ZNK19COmxILDummyBaseILIF23GetComponentOutputPortsER13RPointerArrayI18MILComponentPortIfE @ 35 NONAME
	_ZNK19COmxILDummyBaseILIF8GetStateER17TILComponentState @ 36 NONAME
	_ZNK19COmxILDummyBaseILIF9GetConfigER9TILStructPK18MILComponentPortIf @ 37 NONAME
	_ZTI13COmxCallbacks @ 38 NONAME
	_ZTI17COmxBufferManager @ 39 NONAME
	_ZTI19COmxILDummyBaseILIF @ 40 NONAME
	_ZTI23COmxILDummyBasePortILIF @ 41 NONAME
	_ZTIN17COmxBufferManager10COmxBufferE @ 42 NONAME
	_ZTIN19COmxILDummyBaseILIF5CBodyE @ 43 NONAME
	_ZTV13COmxCallbacks @ 44 NONAME
	_ZTV17COmxBufferManager @ 45 NONAME
	_ZTV19COmxILDummyBaseILIF @ 46 NONAME
	_ZTV23COmxILDummyBasePortILIF @ 47 NONAME
	_ZTVN17COmxBufferManager10COmxBufferE @ 48 NONAME
	_ZTVN19COmxILDummyBaseILIF5CBodyE @ 49 NONAME
	_ZThn12_N19COmxILDummyBaseILIF12EventHandlerE13OMX_EVENTTYPEmmPv @ 50 NONAME
	_ZThn12_N19COmxILDummyBaseILIF14FillBufferDoneEP10CMMFBufferi @ 51 NONAME
	_ZThn12_N19COmxILDummyBaseILIF15EmptyBufferDoneEPK10CMMFBufferi @ 52 NONAME
	_ZThn4_N19COmxILDummyBaseILIF10InitializeEv @ 53 NONAME
	_ZThn4_N19COmxILDummyBaseILIF11SendCommandERK10TILCommand @ 54 NONAME
	_ZThn4_N19COmxILDummyBaseILIF12SetExtConfigERK6TDesC8RK9TILStructPK18MILComponentPortIf @ 55 NONAME
	_ZThn4_N19COmxILDummyBaseILIF12UnInitializeEv @ 56 NONAME
	_ZThn4_N19COmxILDummyBaseILIF13FlushAllPortsEv @ 57 NONAME
	_ZThn4_N19COmxILDummyBaseILIF15CustomInterfaceE4TUid @ 58 NONAME
	_ZThn4_N19COmxILDummyBaseILIF16CreateComponentLERK4TUidR13MILIfObserver @ 59 NONAME
	_ZThn4_N19COmxILDummyBaseILIF16CreateComponentLERK6TDesC8R13MILIfObserver @ 60 NONAME
	_ZThn4_N19COmxILDummyBaseILIF16ReleaseComponentEv @ 61 NONAME
	_ZThn4_N19COmxILDummyBaseILIF18SetComponentIfRoleERK4TUid @ 62 NONAME
	_ZThn4_N19COmxILDummyBaseILIF18SetComponentIfRoleERK6TDesC8 @ 63 NONAME
	_ZThn4_N19COmxILDummyBaseILIF4StopEv @ 64 NONAME
	_ZThn4_N19COmxILDummyBaseILIF5PauseEv @ 65 NONAME
	_ZThn4_N19COmxILDummyBaseILIF7ExecuteEv @ 66 NONAME
	_ZThn4_N19COmxILDummyBaseILIF9SetConfigERK9TILStructPK18MILComponentPortIf @ 67 NONAME
	_ZThn4_NK19COmxILDummyBaseILIF12GetExtConfigERK6TDesC8R9TILStructPK18MILComponentPortIf @ 68 NONAME
	_ZThn4_NK19COmxILDummyBaseILIF17ComponentRoleEnumER5TPtr8m @ 69 NONAME
	_ZThn4_NK19COmxILDummyBaseILIF18GetComponentIfRoleER4TUid @ 70 NONAME
	_ZThn4_NK19COmxILDummyBaseILIF18GetComponentIfRoleER5TDes8 @ 71 NONAME
	_ZThn4_NK19COmxILDummyBaseILIF19GetComponentVersionER19TILComponentVersion @ 72 NONAME
	_ZThn4_NK19COmxILDummyBaseILIF22GetComponentInputPortsER13RPointerArrayI18MILComponentPortIfE @ 73 NONAME
	_ZThn4_NK19COmxILDummyBaseILIF23GetComponentOutputPortsER13RPointerArrayI18MILComponentPortIfE @ 74 NONAME
	_ZThn4_NK19COmxILDummyBaseILIF8GetStateER17TILComponentState @ 75 NONAME
	_ZThn4_NK19COmxILDummyBaseILIF9GetConfigER9TILStructPK18MILComponentPortIf @ 76 NONAME

