EXPORTS
	_ZN10COmxILPort10FreeBufferEP20OMX_BUFFERHEADERTYPERi @ 1 NONAME
	_ZN10COmxILPort10FreeTunnelERi @ 2 NONAME
	_ZN10COmxILPort11CleanUpPortEv @ 3 NONAME
	_ZN10COmxILPort11TBufferInfo7CompareERKS0_S2_ @ 4 NONAME
	_ZN10COmxILPort12SetParameterE13OMX_INDEXTYPEPKvRi @ 5 NONAME
	_ZN10COmxILPort13SetBufferSentEP20OMX_BUFFERHEADERTYPERi @ 6 NONAME
	_ZN10COmxILPort13TunnelRequestEPvmP19OMX_TUNNELSETUPTYPE @ 7 NONAME
	_ZN10COmxILPort14DoOmxUseBufferEPvPP20OMX_BUFFERHEADERTYPEmS0_S0_mPh @ 8 NONAME
	_ZN10COmxILPort14PopulateBufferEPP20OMX_BUFFERHEADERTYPEPvmPhRi @ 9 NONAME
	_ZN10COmxILPort14PopulateTunnelERi @ 10 NONAME
	_ZN10COmxILPort15StoreBufferMarkEPK12OMX_MARKTYPE @ 11 NONAME
	_ZN10COmxILPort15StoreBufferMarkERPvS1_ @ 12 NONAME
	_ZN10COmxILPort16DoBufferWrappingEmPhRPvS2_S1_ @ 13 NONAME
	_ZN10COmxILPort17SetBufferReturnedEP20OMX_BUFFERHEADERTYPE @ 14 NONAME
	_ZN10COmxILPort18DoBufferAllocationEmRPhRPvS3_S2_ @ 15 NONAME
	_ZN10COmxILPort18DoBufferUnwrappingEPvS0_S0_S0_ @ 16 NONAME
	_ZN10COmxILPort20DoBufferDeallocationEPvS0_S0_S0_ @ 17 NONAME
	_ZN10COmxILPort21DoPortReconfigurationEjRK6TDesC8R13OMX_EVENTTYPE @ 18 NONAME
	_ZN10COmxILPort22SetTransitionToEnabledEv @ 19 NONAME
	_ZN10COmxILPort23SetTransitionToDisabledEv @ 20 NONAME
	_ZN10COmxILPort24SetComponentRoleDefaultsEj @ 21 NONAME
	_ZN10COmxILPort31SetTransitionToEnabledCompletedEv @ 22 NONAME
	_ZN10COmxILPort32SetTransitionToDisabledCompletedEv @ 23 NONAME
	_ZN10COmxILPort9SetConfigE13OMX_INDEXTYPEPKvRi @ 24 NONAME
	_ZN10COmxILPortC2ERK20TOmxILCommonPortData @ 25 NONAME
	_ZN10COmxILPortD0Ev @ 26 NONAME
	_ZN10COmxILPortD1Ev @ 27 NONAME
	_ZN10COmxILPortD2Ev @ 28 NONAME
	_ZN10TOmxILUtil19ClearBufferContentsEP20OMX_BUFFERHEADERTYPE @ 29 NONAME
	_ZN10TOmxILUtil28CheckOmxStructSizeAndVersionEPvm @ 30 NONAME
	_ZN15COmxILAudioPort10ConstructLERK6RArrayI20OMX_AUDIO_CODINGTYPEE @ 31 NONAME
	_ZN15COmxILAudioPort12SetParameterE13OMX_INDEXTYPEPKvRi @ 32 NONAME
	_ZN15COmxILAudioPortC2ERK20TOmxILCommonPortData @ 33 NONAME
	_ZN15COmxILAudioPortD0Ev @ 34 NONAME
	_ZN15COmxILAudioPortD1Ev @ 35 NONAME
	_ZN15COmxILAudioPortD2Ev @ 36 NONAME
	_ZN15COmxILComponent14InitComponentLEv @ 37 NONAME
	_ZN15COmxILComponent28SymbianErrorToGetHandleErrorEi @ 38 NONAME
	_ZN15COmxILComponentC1Ev @ 39 NONAME
	_ZN15COmxILComponentC2Ev @ 40 NONAME
	_ZN15COmxILComponentD0Ev @ 41 NONAME
	_ZN15COmxILComponentD1Ev @ 42 NONAME
	_ZN15COmxILComponentD2Ev @ 43 NONAME
	_ZN15COmxILImagePort12SetParameterE13OMX_INDEXTYPEPKvRi @ 44 NONAME
	_ZN15COmxILImagePortC2ERK20TOmxILCommonPortDataRK6RArrayI20OMX_IMAGE_CODINGTYPEERKS3_I20OMX_COLOR_FORMATTYPEE @ 45 NONAME
	_ZN15COmxILImagePortD0Ev @ 46 NONAME
	_ZN15COmxILImagePortD1Ev @ 47 NONAME
	_ZN15COmxILImagePortD2Ev @ 48 NONAME
	_ZN15COmxILOtherPort10ConstructLERK6RArrayI20OMX_OTHER_FORMATTYPEE @ 49 NONAME
	_ZN15COmxILOtherPort12SetParameterE13OMX_INDEXTYPEPKvRi @ 50 NONAME
	_ZN15COmxILOtherPortC2ERK20TOmxILCommonPortData @ 51 NONAME
	_ZN15COmxILOtherPortD0Ev @ 52 NONAME
	_ZN15COmxILOtherPortD1Ev @ 53 NONAME
	_ZN15COmxILOtherPortD2Ev @ 54 NONAME
	_ZN15COmxILVideoPort12SetParameterE13OMX_INDEXTYPEPKvRi @ 55 NONAME
	_ZN15COmxILVideoPortC2ERK20TOmxILCommonPortDataRK6RArrayI20OMX_VIDEO_CODINGTYPEERKS3_I20OMX_COLOR_FORMATTYPEE @ 56 NONAME
	_ZN15COmxILVideoPortD0Ev @ 57 NONAME
	_ZN15COmxILVideoPortD1Ev @ 58 NONAME
	_ZN15COmxILVideoPortD2Ev @ 59 NONAME
	_ZN17COmxILPortManager4NewLER24COmxILProcessingFunctionR23MOmxILCallbackManagerIfRK15OMX_VERSIONTYPEmmmmmmmm8OMX_BOOL @ 60 NONAME
	_ZN17COmxILPortManager7AddPortEPK10COmxILPort11OMX_DIRTYPE @ 61 NONAME
	_ZN19COmxILConfigManager10ConstructLERK6TDesC8RK15OMX_VERSIONTYPERK13RPointerArrayIS0_E @ 62 NONAME
	_ZN19COmxILConfigManager12SetParameterE13OMX_INDEXTYPEPKv8OMX_BOOL @ 63 NONAME
	_ZN19COmxILConfigManager4NewLER17COmxILPortManagerRK6TDesC8RK15OMX_VERSIONTYPERK13RPointerArrayIS2_E @ 64 NONAME
	_ZN19COmxILConfigManager9SetConfigE13OMX_INDEXTYPEPKv @ 65 NONAME
	_ZN19COmxILConfigManagerC1ER17COmxILPortManager @ 66 NONAME
	_ZN19COmxILConfigManagerC2ER17COmxILPortManager @ 67 NONAME
	_ZN19COmxILConfigManagerD0Ev @ 68 NONAME
	_ZN19COmxILConfigManagerD1Ev @ 69 NONAME
	_ZN19COmxILConfigManagerD2Ev @ 70 NONAME
	_ZN20TOmxILCommonPortDataC1E15OMX_VERSIONTYPEm11OMX_DIRTYPEmm18OMX_PORTDOMAINTYPE8OMX_BOOLm22OMX_BUFFERSUPPLIERTYPEm @ 71 NONAME
	_ZN20TOmxILCommonPortDataC2E15OMX_VERSIONTYPEm11OMX_DIRTYPEmm18OMX_PORTDOMAINTYPE8OMX_BOOLm22OMX_BUFFERSUPPLIERTYPEm @ 72 NONAME
	_ZN21COmxILCallbackManager14SetPortManagerER17COmxILPortManager @ 73 NONAME
	_ZN21COmxILCallbackManager17EventNotificationE13OMX_EVENTTYPEmmPc @ 74 NONAME
	_ZN21COmxILCallbackManager22BufferDoneNotificationEP20OMX_BUFFERHEADERTYPEm11OMX_DIRTYPE @ 75 NONAME
	_ZN21COmxILCallbackManager22ErrorEventNotificationE13OMX_ERRORTYPE @ 76 NONAME
	_ZN21COmxILCallbackManager22RegisterTunnelCallbackEm11OMX_DIRTYPEPvm @ 77 NONAME
	_ZN21COmxILCallbackManager23BufferRemovalIndicationEP20OMX_BUFFERHEADERTYPE11OMX_DIRTYPE @ 78 NONAME
	_ZN21COmxILCallbackManager23RegisterComponentHandleEPv @ 79 NONAME
	_ZN21COmxILCallbackManager24DeregisterTunnelCallbackEm @ 80 NONAME
	_ZN21COmxILCallbackManager25RegisterILClientCallbacksEPK16OMX_CALLBACKTYPEPv @ 81 NONAME
	_ZN21COmxILCallbackManager27ClockBufferDoneNotificationEP20OMX_BUFFERHEADERTYPEm11OMX_DIRTYPE @ 82 NONAME
	_ZN21COmxILCallbackManager27CommandCompleteNotificationE15OMX_COMMANDTYPEm @ 83 NONAME
	_ZN21COmxILCallbackManager30PortSettingsChangeNotificationEmjRK6TDesC8 @ 84 NONAME
	_ZN21COmxILCallbackManager30TransitionCompleteNotificationE13OMX_STATETYPE @ 85 NONAME
	_ZN21COmxILCallbackManager33RegisterBufferMarkPropagationPortEmm @ 86 NONAME
	_ZN21COmxILCallbackManager4NewLEPvS0_P16OMX_CALLBACKTYPE @ 87 NONAME
	_ZN21COmxILCallbackManager6SetFsmER9COmxILFsm @ 88 NONAME
	_ZN21COmxILCallbackManagerD0Ev @ 89 NONAME
	_ZN21COmxILCallbackManagerD1Ev @ 90 NONAME
	_ZN21COmxILCallbackManagerD2Ev @ 91 NONAME
	_ZN21COmxILClientClockPort4NewLERK20TOmxILCommonPortDataRK6RArrayI20OMX_OTHER_FORMATTYPEE @ 92 NONAME
	_ZN24COmxILProcessingFunction19MediaTimeIndicationERK22OMX_TIME_MEDIATIMETYPE @ 93 NONAME
	_ZN24COmxILProcessingFunction23ComponentRoleIndicationEj @ 94 NONAME
	_ZN24COmxILProcessingFunctionC2ER28MOmxILCallbackNotificationIf @ 95 NONAME
	_ZN24COmxILProcessingFunctionD0Ev @ 96 NONAME
	_ZN24COmxILProcessingFunctionD1Ev @ 97 NONAME
	_ZN24COmxILProcessingFunctionD2Ev @ 98 NONAME
	_ZN27XOmxILCallbackManagerIfImpl16DoSetPortManagerER17COmxILPortManager @ 99 NONAME
	_ZN27XOmxILCallbackManagerIfImpl19DoEventNotificationE13OMX_EVENTTYPEmmPc @ 100 NONAME
	_ZN27XOmxILCallbackManagerIfImpl24DoBufferDoneNotificationEP20OMX_BUFFERHEADERTYPEm11OMX_DIRTYPE @ 101 NONAME
	_ZN27XOmxILCallbackManagerIfImpl24DoErrorEventNotificationE13OMX_ERRORTYPE @ 102 NONAME
	_ZN27XOmxILCallbackManagerIfImpl24DoRegisterTunnelCallbackEm11OMX_DIRTYPEPvm @ 103 NONAME
	_ZN27XOmxILCallbackManagerIfImpl25DoRegisterComponentHandleEPv @ 104 NONAME
	_ZN27XOmxILCallbackManagerIfImpl27DoRegisterILClientCallbacksEPK16OMX_CALLBACKTYPEPv @ 105 NONAME
	_ZN27XOmxILCallbackManagerIfImpl27HandleInsufficientResourcesEv @ 106 NONAME
	_ZN27XOmxILCallbackManagerIfImpl28SignalOrPropagateBufferMarksEP20OMX_BUFFERHEADERTYPEm @ 107 NONAME
	_ZN27XOmxILCallbackManagerIfImpl29DoCommandCompleteNotificationE15OMX_COMMANDTYPEm @ 108 NONAME
	_ZN27XOmxILCallbackManagerIfImpl32DoPortSettingsChangeNotificationEmjRK6TDesC8 @ 109 NONAME
	_ZN27XOmxILCallbackManagerIfImpl32DoTransitionCompleteNotificationE13OMX_STATETYPE @ 110 NONAME
	_ZN27XOmxILCallbackManagerIfImpl35DoRegisterBufferMarkPropagationPortEmm @ 111 NONAME
	_ZN27XOmxILCallbackManagerIfImpl8DoSetFsmER9COmxILFsm @ 112 NONAME
	_ZN27XOmxILCallbackManagerIfImplC1EPvS0_P16OMX_CALLBACKTYPE @ 113 NONAME
	_ZN27XOmxILCallbackManagerIfImplC2EPvS0_P16OMX_CALLBACKTYPE @ 114 NONAME
	_ZN27XOmxILCallbackManagerIfImplD0Ev @ 115 NONAME
	_ZN27XOmxILCallbackManagerIfImplD1Ev @ 116 NONAME
	_ZN27XOmxILCallbackManagerIfImplD2Ev @ 117 NONAME
	_ZN30COmxILInContextCallbackManager14SetPortManagerER17COmxILPortManager @ 118 NONAME
	_ZN30COmxILInContextCallbackManager17EventNotificationE13OMX_EVENTTYPEmmPc @ 119 NONAME
	_ZN30COmxILInContextCallbackManager22BufferDoneNotificationEP20OMX_BUFFERHEADERTYPEm11OMX_DIRTYPE @ 120 NONAME
	_ZN30COmxILInContextCallbackManager22ErrorEventNotificationE13OMX_ERRORTYPE @ 121 NONAME
	_ZN30COmxILInContextCallbackManager22RegisterTunnelCallbackEm11OMX_DIRTYPEPvm @ 122 NONAME
	_ZN30COmxILInContextCallbackManager23BufferRemovalIndicationEP20OMX_BUFFERHEADERTYPE11OMX_DIRTYPE @ 123 NONAME
	_ZN30COmxILInContextCallbackManager23RegisterComponentHandleEPv @ 124 NONAME
	_ZN30COmxILInContextCallbackManager24DeregisterTunnelCallbackEm @ 125 NONAME
	_ZN30COmxILInContextCallbackManager25RegisterILClientCallbacksEPK16OMX_CALLBACKTYPEPv @ 126 NONAME
	_ZN30COmxILInContextCallbackManager27ClockBufferDoneNotificationEP20OMX_BUFFERHEADERTYPEm11OMX_DIRTYPE @ 127 NONAME
	_ZN30COmxILInContextCallbackManager27CommandCompleteNotificationE15OMX_COMMANDTYPEm @ 128 NONAME
	_ZN30COmxILInContextCallbackManager30PortSettingsChangeNotificationEmjRK6TDesC8 @ 129 NONAME
	_ZN30COmxILInContextCallbackManager30TransitionCompleteNotificationE13OMX_STATETYPE @ 130 NONAME
	_ZN30COmxILInContextCallbackManager33RegisterBufferMarkPropagationPortEmm @ 131 NONAME
	_ZN30COmxILInContextCallbackManager4NewLEPvS0_P16OMX_CALLBACKTYPE @ 132 NONAME
	_ZN30COmxILInContextCallbackManager6SetFsmER9COmxILFsm @ 133 NONAME
	_ZN30COmxILInContextCallbackManagerD0Ev @ 134 NONAME
	_ZN30COmxILInContextCallbackManagerD1Ev @ 135 NONAME
	_ZN30COmxILInContextCallbackManagerD2Ev @ 136 NONAME
	_ZN9COmxILFsm4NewLER15COmxILComponentR24COmxILProcessingFunctionR17COmxILPortManagerR19COmxILConfigManagerR23MOmxILCallbackManagerIf @ 137 NONAME
	_ZNK10COmxILPort12GetParameterE13OMX_INDEXTYPEPv @ 138 NONAME
	_ZNK10COmxILPort14IsBufferAtHomeEP20OMX_BUFFERHEADERTYPE @ 139 NONAME
	_ZNK10COmxILPort17GetExtensionIndexEPcP13OMX_INDEXTYPE @ 140 NONAME
	_ZNK10COmxILPort19HasAllBuffersAtHomeEv @ 141 NONAME
	_ZNK10COmxILPort23GetLocalOmxParamIndexesER6RArrayIjE @ 142 NONAME
	_ZNK10COmxILPort24GetLocalOmxConfigIndexesER6RArrayIjE @ 143 NONAME
	_ZNK10COmxILPort9GetConfigE13OMX_INDEXTYPEPv @ 144 NONAME
	_ZNK15COmxILAudioPort12GetParameterE13OMX_INDEXTYPEPv @ 145 NONAME
	_ZNK15COmxILAudioPort23GetLocalOmxParamIndexesER6RArrayIjE @ 146 NONAME
	_ZNK15COmxILAudioPort24GetLocalOmxConfigIndexesER6RArrayIjE @ 147 NONAME
	_ZNK15COmxILImagePort12GetParameterE13OMX_INDEXTYPEPv @ 148 NONAME
	_ZNK15COmxILImagePort23GetLocalOmxParamIndexesER6RArrayIjE @ 149 NONAME
	_ZNK15COmxILImagePort24GetLocalOmxConfigIndexesER6RArrayIjE @ 150 NONAME
	_ZNK15COmxILOtherPort12GetParameterE13OMX_INDEXTYPEPv @ 151 NONAME
	_ZNK15COmxILOtherPort23GetLocalOmxParamIndexesER6RArrayIjE @ 152 NONAME
	_ZNK15COmxILOtherPort24GetLocalOmxConfigIndexesER6RArrayIjE @ 153 NONAME
	_ZNK15COmxILVideoPort12GetParameterE13OMX_INDEXTYPEPv @ 154 NONAME
	_ZNK15COmxILVideoPort23GetLocalOmxParamIndexesER6RArrayIjE @ 155 NONAME
	_ZNK15COmxILVideoPort24GetLocalOmxConfigIndexesER6RArrayIjE @ 156 NONAME
	_ZNK19COmxILConfigManager12GetParameterE13OMX_INDEXTYPEPv @ 157 NONAME
	_ZNK19COmxILConfigManager17ComponentRoleEnumEPhm @ 158 NONAME
	_ZNK19COmxILConfigManager17GetExtensionIndexEPcP13OMX_INDEXTYPE @ 159 NONAME
	_ZNK19COmxILConfigManager19GetComponentVersionEPcP15OMX_VERSIONTYPES2_PA128_h @ 160 NONAME
	_ZNK19COmxILConfigManager9GetConfigE13OMX_INDEXTYPEPv @ 161 NONAME
	_ZNK21COmxILClientClockPort11GetWallTimeERx @ 162 NONAME
	_ZNK21COmxILClientClockPort12GetMediaTimeERx @ 163 NONAME
	_ZNK21COmxILClientClockPort12SetStartTimeEx @ 164 NONAME
	_ZNK21COmxILClientClockPort13GetClockStateER30OMX_TIME_CONFIG_CLOCKSTATETYPE @ 165 NONAME
	_ZNK21COmxILClientClockPort16MediaTimeRequestEPvxx @ 166 NONAME
	_ZNK21COmxILClientClockPort17SetAudioReferenceEx @ 167 NONAME
	_ZNK21COmxILClientClockPort17SetVideoReferenceEx @ 168 NONAME
	_ZNK21COmxILClientClockPort25IsClockComponentAvailableEv @ 169 NONAME
	_ZTI10COmxILPort @ 170 NONAME
	_ZTI15COmxILAudioPort @ 171 NONAME
	_ZTI15COmxILComponent @ 172 NONAME
	_ZTI15COmxILImagePort @ 173 NONAME
	_ZTI15COmxILOtherPort @ 174 NONAME
	_ZTI15COmxILVideoPort @ 175 NONAME
	_ZTI19COmxILConfigManager @ 176 NONAME
	_ZTI24COmxILProcessingFunction @ 177 NONAME
	_ZTI27XOmxILCallbackManagerIfImpl @ 178 NONAME
	_ZTIN21COmxILCallbackManager16CCallbackCommandE @ 179 NONAME
	_ZTIN21COmxILCallbackManager21CBufferRemovalCommandE @ 180 NONAME
	_ZTIN21COmxILCallbackManager21CEventCallbackCommandE @ 181 NONAME
	_ZTIN21COmxILCallbackManager26CBufferDoneCallbackCommandE @ 182 NONAME
	_ZTIN21COmxILCallbackManager26CPortSettingsChangeCommandE @ 183 NONAME
	_ZTIN21COmxILCallbackManager30CCompHandleRegistrationCommandE @ 184 NONAME
	_ZTIN21COmxILCallbackManager34CTunnelCallbackRegistrationCommandE @ 185 NONAME
	_ZTIN21COmxILCallbackManager35CClientCallbacksRegistrationCommandE @ 186 NONAME
	_ZTIN21COmxILCallbackManager41CBufferMarkPropagationRegistrationCommandE @ 187 NONAME
	_ZTIN9COmxILFsm11COmxILStateE @ 188 NONAME
	_ZTIN9COmxILFsm15COmxILStateIdleE @ 189 NONAME
	_ZTIN9COmxILFsm16COmxILStatePauseE @ 190 NONAME
	_ZTIN9COmxILFsm17COmxILStateLoadedE @ 191 NONAME
	_ZTIN9COmxILFsm18COmxILStateInvalidE @ 192 NONAME
	_ZTIN9COmxILFsm20COmxILStateExecutingE @ 193 NONAME
	_ZTIN9COmxILFsm22COmxILStatePauseToIdleE @ 194 NONAME
	_ZTIN9COmxILFsm23COmxILStateIdleToLoadedE @ 195 NONAME
	_ZTIN9COmxILFsm23COmxILStateLoadedToIdleE @ 196 NONAME
	_ZTIN9COmxILFsm26COmxILStateExecutingToIdleE @ 197 NONAME
	_ZTIN9COmxILFsm27COmxILStateWaitForResourcesE @ 198 NONAME
	_ZTV10COmxILPort @ 199 NONAME
	_ZTV15COmxILAudioPort @ 200 NONAME
	_ZTV15COmxILComponent @ 201 NONAME
	_ZTV15COmxILImagePort @ 202 NONAME
	_ZTV15COmxILOtherPort @ 203 NONAME
	_ZTV15COmxILVideoPort @ 204 NONAME
	_ZTV19COmxILConfigManager @ 205 NONAME
	_ZTV24COmxILProcessingFunction @ 206 NONAME
	_ZTV27XOmxILCallbackManagerIfImpl @ 207 NONAME
	_ZTVN21COmxILCallbackManager16CCallbackCommandE @ 208 NONAME
	_ZTVN21COmxILCallbackManager21CBufferRemovalCommandE @ 209 NONAME
	_ZTVN21COmxILCallbackManager21CEventCallbackCommandE @ 210 NONAME
	_ZTVN21COmxILCallbackManager26CBufferDoneCallbackCommandE @ 211 NONAME
	_ZTVN21COmxILCallbackManager26CPortSettingsChangeCommandE @ 212 NONAME
	_ZTVN21COmxILCallbackManager30CCompHandleRegistrationCommandE @ 213 NONAME
	_ZTVN21COmxILCallbackManager34CTunnelCallbackRegistrationCommandE @ 214 NONAME
	_ZTVN21COmxILCallbackManager35CClientCallbacksRegistrationCommandE @ 215 NONAME
	_ZTVN21COmxILCallbackManager41CBufferMarkPropagationRegistrationCommandE @ 216 NONAME
	_ZTVN9COmxILFsm11COmxILStateE @ 217 NONAME
	_ZTVN9COmxILFsm15COmxILStateIdleE @ 218 NONAME
	_ZTVN9COmxILFsm16COmxILStatePauseE @ 219 NONAME
	_ZTVN9COmxILFsm17COmxILStateLoadedE @ 220 NONAME
	_ZTVN9COmxILFsm18COmxILStateInvalidE @ 221 NONAME
	_ZTVN9COmxILFsm20COmxILStateExecutingE @ 222 NONAME
	_ZTVN9COmxILFsm22COmxILStatePauseToIdleE @ 223 NONAME
	_ZTVN9COmxILFsm23COmxILStateIdleToLoadedE @ 224 NONAME
	_ZTVN9COmxILFsm23COmxILStateLoadedToIdleE @ 225 NONAME
	_ZTVN9COmxILFsm26COmxILStateExecutingToIdleE @ 226 NONAME
	_ZTVN9COmxILFsm27COmxILStateWaitForResourcesE @ 227 NONAME
	_ZThn232_NK21COmxILClientClockPort11GetWallTimeERx @ 228 NONAME
	_ZThn232_NK21COmxILClientClockPort12GetMediaTimeERx @ 229 NONAME
	_ZThn232_NK21COmxILClientClockPort12SetStartTimeEx @ 230 NONAME
	_ZThn232_NK21COmxILClientClockPort13GetClockStateER30OMX_TIME_CONFIG_CLOCKSTATETYPE @ 231 NONAME
	_ZThn232_NK21COmxILClientClockPort16MediaTimeRequestEPvxx @ 232 NONAME
	_ZThn232_NK21COmxILClientClockPort17SetAudioReferenceEx @ 233 NONAME
	_ZThn232_NK21COmxILClientClockPort17SetVideoReferenceEx @ 234 NONAME
	_ZThn232_NK21COmxILClientClockPort25IsClockComponentAvailableEv @ 235 NONAME
	_ZThn28_N21COmxILCallbackManager14SetPortManagerER17COmxILPortManager @ 236 NONAME
	_ZThn28_N21COmxILCallbackManager17EventNotificationE13OMX_EVENTTYPEmmPc @ 237 NONAME
	_ZThn28_N21COmxILCallbackManager22BufferDoneNotificationEP20OMX_BUFFERHEADERTYPEm11OMX_DIRTYPE @ 238 NONAME
	_ZThn28_N21COmxILCallbackManager22ErrorEventNotificationE13OMX_ERRORTYPE @ 239 NONAME
	_ZThn28_N21COmxILCallbackManager22RegisterTunnelCallbackEm11OMX_DIRTYPEPvm @ 240 NONAME
	_ZThn28_N21COmxILCallbackManager23BufferRemovalIndicationEP20OMX_BUFFERHEADERTYPE11OMX_DIRTYPE @ 241 NONAME
	_ZThn28_N21COmxILCallbackManager23RegisterComponentHandleEPv @ 242 NONAME
	_ZThn28_N21COmxILCallbackManager24DeregisterTunnelCallbackEm @ 243 NONAME
	_ZThn28_N21COmxILCallbackManager25RegisterILClientCallbacksEPK16OMX_CALLBACKTYPEPv @ 244 NONAME
	_ZThn28_N21COmxILCallbackManager27ClockBufferDoneNotificationEP20OMX_BUFFERHEADERTYPEm11OMX_DIRTYPE @ 245 NONAME
	_ZThn28_N21COmxILCallbackManager27CommandCompleteNotificationE15OMX_COMMANDTYPEm @ 246 NONAME
	_ZThn28_N21COmxILCallbackManager30PortSettingsChangeNotificationEmjRK6TDesC8 @ 247 NONAME
	_ZThn28_N21COmxILCallbackManager30TransitionCompleteNotificationE13OMX_STATETYPE @ 248 NONAME
	_ZThn28_N21COmxILCallbackManager33RegisterBufferMarkPropagationPortEmm @ 249 NONAME
	_ZThn28_N21COmxILCallbackManager6SetFsmER9COmxILFsm @ 250 NONAME
	_ZThn28_N21COmxILCallbackManagerD0Ev @ 251 NONAME
	_ZThn28_N21COmxILCallbackManagerD1Ev @ 252 NONAME
	_ZThn32_N21COmxILCallbackManagerD0Ev @ 253 NONAME
	_ZThn32_N21COmxILCallbackManagerD1Ev @ 254 NONAME
	_ZThn4_N30COmxILInContextCallbackManager14SetPortManagerER17COmxILPortManager @ 255 NONAME
	_ZThn4_N30COmxILInContextCallbackManager17EventNotificationE13OMX_EVENTTYPEmmPc @ 256 NONAME
	_ZThn4_N30COmxILInContextCallbackManager22BufferDoneNotificationEP20OMX_BUFFERHEADERTYPEm11OMX_DIRTYPE @ 257 NONAME
	_ZThn4_N30COmxILInContextCallbackManager22ErrorEventNotificationE13OMX_ERRORTYPE @ 258 NONAME
	_ZThn4_N30COmxILInContextCallbackManager22RegisterTunnelCallbackEm11OMX_DIRTYPEPvm @ 259 NONAME
	_ZThn4_N30COmxILInContextCallbackManager23BufferRemovalIndicationEP20OMX_BUFFERHEADERTYPE11OMX_DIRTYPE @ 260 NONAME
	_ZThn4_N30COmxILInContextCallbackManager23RegisterComponentHandleEPv @ 261 NONAME
	_ZThn4_N30COmxILInContextCallbackManager24DeregisterTunnelCallbackEm @ 262 NONAME
	_ZThn4_N30COmxILInContextCallbackManager25RegisterILClientCallbacksEPK16OMX_CALLBACKTYPEPv @ 263 NONAME
	_ZThn4_N30COmxILInContextCallbackManager27ClockBufferDoneNotificationEP20OMX_BUFFERHEADERTYPEm11OMX_DIRTYPE @ 264 NONAME
	_ZThn4_N30COmxILInContextCallbackManager27CommandCompleteNotificationE15OMX_COMMANDTYPEm @ 265 NONAME
	_ZThn4_N30COmxILInContextCallbackManager30PortSettingsChangeNotificationEmjRK6TDesC8 @ 266 NONAME
	_ZThn4_N30COmxILInContextCallbackManager30TransitionCompleteNotificationE13OMX_STATETYPE @ 267 NONAME
	_ZThn4_N30COmxILInContextCallbackManager33RegisterBufferMarkPropagationPortEmm @ 268 NONAME
	_ZThn4_N30COmxILInContextCallbackManager6SetFsmER9COmxILFsm @ 269 NONAME
	_ZThn4_N30COmxILInContextCallbackManagerD0Ev @ 270 NONAME
	_ZThn4_N30COmxILInContextCallbackManagerD1Ev @ 271 NONAME
	_ZThn8_N30COmxILInContextCallbackManagerD0Ev @ 272 NONAME
	_ZThn8_N30COmxILInContextCallbackManagerD1Ev @ 273 NONAME