EXPORTS
	?DoSetFsm@XOmxILCallbackManagerIfImpl@@MAEXAAVCOmxILFsm@@@Z @ 1 NONAME ; void XOmxILCallbackManagerIfImpl::DoSetFsm(class COmxILFsm &)
	?DoRegisterTunnelCallback@XOmxILCallbackManagerIfImpl@@MAE?AW4OMX_ERRORTYPE@@KW4OMX_DIRTYPE@@PAXK@Z @ 2 NONAME ; enum OMX_ERRORTYPE XOmxILCallbackManagerIfImpl::DoRegisterTunnelCallback(unsigned long, enum OMX_DIRTYPE, void *, unsigned long)
	?SetConfig@COmxILConfigManager@@UAE?AW4OMX_ERRORTYPE@@W4OMX_INDEXTYPE@@PBX@Z @ 3 NONAME ; enum OMX_ERRORTYPE COmxILConfigManager::SetConfig(enum OMX_INDEXTYPE, void const *)
	??0COmxILConfigManager@@IAE@AAVMOmxILPortManagerIf@@@Z @ 4 NONAME ; COmxILConfigManager::COmxILConfigManager(class MOmxILPortManagerIf &)
	?SetTransitionToDisabledCompleted@COmxILPort@@UAEXXZ @ 5 NONAME ; void COmxILPort::SetTransitionToDisabledCompleted(void)
	?GetParameter@COmxILOtherPort@@UBE?AW4OMX_ERRORTYPE@@W4OMX_INDEXTYPE@@PAX@Z @ 6 NONAME ; enum OMX_ERRORTYPE COmxILOtherPort::GetParameter(enum OMX_INDEXTYPE, void *) const
	??1COmxILImagePort@@UAE@XZ @ 7 NONAME ; COmxILImagePort::~COmxILImagePort(void)
	?StoreBufferMark@COmxILPort@@IAE?AW4OMX_ERRORTYPE@@AAPAX0@Z @ 8 NONAME ; enum OMX_ERRORTYPE COmxILPort::StoreBufferMark(void * &, void * &)
	??1COmxILCallbackManager@@UAE@XZ @ 9 NONAME ; COmxILCallbackManager::~COmxILCallbackManager(void)
	?ClockBufferDoneNotification@COmxILCallbackManager@@UAE?AW4OMX_ERRORTYPE@@PAUOMX_BUFFERHEADERTYPE@@KW4OMX_DIRTYPE@@@Z @ 10 NONAME ; enum OMX_ERRORTYPE COmxILCallbackManager::ClockBufferDoneNotification(struct OMX_BUFFERHEADERTYPE *, unsigned long, enum OMX_DIRTYPE)
	?RegisterILClientCallbacks@COmxILInContextCallbackManager@@UAE?AW4OMX_ERRORTYPE@@PBUOMX_CALLBACKTYPE@@PAX@Z @ 11 NONAME ; enum OMX_ERRORTYPE COmxILInContextCallbackManager::RegisterILClientCallbacks(struct OMX_CALLBACKTYPE const *, void *)
	?DoCommandCompleteNotification@XOmxILCallbackManagerIfImpl@@MAE?AW4OMX_ERRORTYPE@@W4OMX_COMMANDTYPE@@K@Z @ 12 NONAME ; enum OMX_ERRORTYPE XOmxILCallbackManagerIfImpl::DoCommandCompleteNotification(enum OMX_COMMANDTYPE, unsigned long)
	?DoTransitionCompleteNotification@XOmxILCallbackManagerIfImpl@@MAE?AW4OMX_ERRORTYPE@@W4OMX_STATETYPE@@@Z @ 13 NONAME ; enum OMX_ERRORTYPE XOmxILCallbackManagerIfImpl::DoTransitionCompleteNotification(enum OMX_STATETYPE)
	?SetTransitionToDisabled@COmxILPort@@UAEXXZ @ 14 NONAME ; void COmxILPort::SetTransitionToDisabled(void)
	?SymbianErrorToGetHandleError@COmxILComponent@@SA?AW4OMX_ERRORTYPE@@H@Z @ 15 NONAME ; enum OMX_ERRORTYPE COmxILComponent::SymbianErrorToGetHandleError(int)
	?SetConfig@COmxILPort@@UAE?AW4OMX_ERRORTYPE@@W4OMX_INDEXTYPE@@PBXAAH@Z @ 16 NONAME ; enum OMX_ERRORTYPE COmxILPort::SetConfig(enum OMX_INDEXTYPE, void const *, int &)
	?GetParameter@COmxILPort@@UBE?AW4OMX_ERRORTYPE@@W4OMX_INDEXTYPE@@PAX@Z @ 17 NONAME ; enum OMX_ERRORTYPE COmxILPort::GetParameter(enum OMX_INDEXTYPE, void *) const
	?GetLocalOmxConfigIndexes@COmxILPort@@UBE?AW4OMX_ERRORTYPE@@AAV?$RArray@I@@@Z @ 18 NONAME ; enum OMX_ERRORTYPE COmxILPort::GetLocalOmxConfigIndexes(class RArray<unsigned int> &) const
	?SetBufferSent@COmxILPort@@UAEHPAUOMX_BUFFERHEADERTYPE@@AAH@Z @ 19 NONAME ; int COmxILPort::SetBufferSent(struct OMX_BUFFERHEADERTYPE *, int &)
	?ComponentRoleIndication@COmxILProcessingFunction@@UAE?AW4OMX_ERRORTYPE@@I@Z @ 20 NONAME ; enum OMX_ERRORTYPE COmxILProcessingFunction::ComponentRoleIndication(unsigned int)
	?AddPort@COmxILPortManager@@UAEHPBVCOmxILPort@@W4OMX_DIRTYPE@@@Z @ 21 NONAME ; int COmxILPortManager::AddPort(class COmxILPort const *, enum OMX_DIRTYPE)
	??0TOmxILCommonPortData@@QAE@TOMX_VERSIONTYPE@@KW4OMX_DIRTYPE@@KKW4OMX_PORTDOMAINTYPE@@W4OMX_BOOL@@KW4OMX_BUFFERSUPPLIERTYPE@@K@Z @ 22 NONAME ; TOmxILCommonPortData::TOmxILCommonPortData(union OMX_VERSIONTYPE, unsigned long, enum OMX_DIRTYPE, unsigned long, unsigned long, enum OMX_PORTDOMAINTYPE, enum OMX_BOOL, unsigned long, enum OMX_BUFFERSUPPLIERTYPE, unsigned long)
	?DoOmxUseBuffer@COmxILPort@@MAE?AW4OMX_ERRORTYPE@@PAXPAPAUOMX_BUFFERHEADERTYPE@@K00KPAE@Z @ 23 NONAME ; enum OMX_ERRORTYPE COmxILPort::DoOmxUseBuffer(void *, struct OMX_BUFFERHEADERTYPE * *, unsigned long, void *, void *, unsigned long, unsigned char *)
	?EventNotification@COmxILCallbackManager@@UAE?AW4OMX_ERRORTYPE@@W4OMX_EVENTTYPE@@KKPAD@Z @ 24 NONAME ; enum OMX_ERRORTYPE COmxILCallbackManager::EventNotification(enum OMX_EVENTTYPE, unsigned long, unsigned long, char *)
	?SetTransitionToEnabledCompleted@COmxILPort@@UAEXXZ @ 25 NONAME ; void COmxILPort::SetTransitionToEnabledCompleted(void)
	?GetConfig@COmxILConfigManager@@UBE?AW4OMX_ERRORTYPE@@W4OMX_INDEXTYPE@@PAX@Z @ 26 NONAME ; enum OMX_ERRORTYPE COmxILConfigManager::GetConfig(enum OMX_INDEXTYPE, void *) const
	?SetParameter@COmxILConfigManager@@UAE?AW4OMX_ERRORTYPE@@W4OMX_INDEXTYPE@@PBXW4OMX_BOOL@@@Z @ 27 NONAME ; enum OMX_ERRORTYPE COmxILConfigManager::SetParameter(enum OMX_INDEXTYPE, void const *, enum OMX_BOOL)
	?RegisterTunnelCallback@COmxILInContextCallbackManager@@UAE?AW4OMX_ERRORTYPE@@KW4OMX_DIRTYPE@@PAXK@Z @ 28 NONAME ; enum OMX_ERRORTYPE COmxILInContextCallbackManager::RegisterTunnelCallback(unsigned long, enum OMX_DIRTYPE, void *, unsigned long)
	?InitComponentL@COmxILComponent@@IAEXXZ @ 29 NONAME ; void COmxILComponent::InitComponentL(void)
	?RegisterComponentHandle@COmxILCallbackManager@@UAE?AW4OMX_ERRORTYPE@@PAX@Z @ 30 NONAME ; enum OMX_ERRORTYPE COmxILCallbackManager::RegisterComponentHandle(void *)
	?HandleInsufficientResources@XOmxILCallbackManagerIfImpl@@MAEXXZ @ 31 NONAME ; void XOmxILCallbackManagerIfImpl::HandleInsufficientResources(void)
	?DoRegisterILClientCallbacks@XOmxILCallbackManagerIfImpl@@MAE?AW4OMX_ERRORTYPE@@PBUOMX_CALLBACKTYPE@@PAX@Z @ 32 NONAME ; enum OMX_ERRORTYPE XOmxILCallbackManagerIfImpl::DoRegisterILClientCallbacks(struct OMX_CALLBACKTYPE const *, void *)
	?Compare@TBufferInfo@COmxILPort@@SAHABV12@0@Z @ 33 NONAME ; int COmxILPort::TBufferInfo::Compare(class COmxILPort::TBufferInfo const &, class COmxILPort::TBufferInfo const &)
	?SetParameter@COmxILVideoPort@@UAE?AW4OMX_ERRORTYPE@@W4OMX_INDEXTYPE@@PBXAAH@Z @ 34 NONAME ; enum OMX_ERRORTYPE COmxILVideoPort::SetParameter(enum OMX_INDEXTYPE, void const *, int &)
	?RegisterBufferMarkPropagationPort@COmxILInContextCallbackManager@@UAE?AW4OMX_ERRORTYPE@@KK@Z @ 35 NONAME ; enum OMX_ERRORTYPE COmxILInContextCallbackManager::RegisterBufferMarkPropagationPort(unsigned long, unsigned long)
	?MediaTimeIndication@COmxILProcessingFunction@@UAE?AW4OMX_ERRORTYPE@@ABUOMX_TIME_MEDIATIMETYPE@@@Z @ 36 NONAME ; enum OMX_ERRORTYPE COmxILProcessingFunction::MediaTimeIndication(struct OMX_TIME_MEDIATIMETYPE const &)
	?StoreBufferMark@COmxILPort@@UAE?AW4OMX_ERRORTYPE@@PBUOMX_MARKTYPE@@@Z @ 37 NONAME ; enum OMX_ERRORTYPE COmxILPort::StoreBufferMark(struct OMX_MARKTYPE const *)
	?GetLocalOmxParamIndexes@COmxILAudioPort@@UBE?AW4OMX_ERRORTYPE@@AAV?$RArray@I@@@Z @ 38 NONAME ; enum OMX_ERRORTYPE COmxILAudioPort::GetLocalOmxParamIndexes(class RArray<unsigned int> &) const
	??0COmxILPort@@IAE@ABVTOmxILCommonPortData@@@Z @ 39 NONAME ; COmxILPort::COmxILPort(class TOmxILCommonPortData const &)
	??1XOmxILCallbackManagerIfImpl@@MAE@XZ @ 40 NONAME ; XOmxILCallbackManagerIfImpl::~XOmxILCallbackManagerIfImpl(void)
	?RegisterBufferMarkPropagationPort@COmxILCallbackManager@@UAE?AW4OMX_ERRORTYPE@@KK@Z @ 41 NONAME ; enum OMX_ERRORTYPE COmxILCallbackManager::RegisterBufferMarkPropagationPort(unsigned long, unsigned long)
	??0COmxILImagePort@@IAE@ABVTOmxILCommonPortData@@ABV?$RArray@W4OMX_IMAGE_CODINGTYPE@@@@ABV?$RArray@W4OMX_COLOR_FORMATTYPE@@@@@Z @ 42 NONAME ; COmxILImagePort::COmxILImagePort(class TOmxILCommonPortData const &, class RArray<enum OMX_IMAGE_CODINGTYPE> const &, class RArray<enum OMX_COLOR_FORMATTYPE> const &)
	?GetExtensionIndex@COmxILPort@@UBE?AW4OMX_ERRORTYPE@@PADPAW4OMX_INDEXTYPE@@@Z @ 43 NONAME ; enum OMX_ERRORTYPE COmxILPort::GetExtensionIndex(char *, enum OMX_INDEXTYPE *) const
	?NewL@COmxILCallbackManager@@SAPAV1@PAX0PAUOMX_CALLBACKTYPE@@@Z @ 44 NONAME ; class COmxILCallbackManager * COmxILCallbackManager::NewL(void *, void *, struct OMX_CALLBACKTYPE *)
	??1COmxILPort@@UAE@XZ @ 45 NONAME ; COmxILPort::~COmxILPort(void)
	?PortSettingsChangeNotification@COmxILCallbackManager@@UAE?AW4OMX_ERRORTYPE@@KIABVTDesC8@@@Z @ 46 NONAME ; enum OMX_ERRORTYPE COmxILCallbackManager::PortSettingsChangeNotification(unsigned long, unsigned int, class TDesC8 const &)
	?NewL@COmxILFsm@@SAPAV1@AAVCOmxILComponent@@AAVCOmxILProcessingFunction@@AAVMOmxILPortManagerIf@@AAVCOmxILConfigManager@@AAVMOmxILCallbackManagerIf@@@Z @ 47 NONAME ; class COmxILFsm * COmxILFsm::NewL(class COmxILComponent &, class COmxILProcessingFunction &, class MOmxILPortManagerIf &, class COmxILConfigManager &, class MOmxILCallbackManagerIf &)
	??1COmxILVideoPort@@UAE@XZ @ 48 NONAME ; COmxILVideoPort::~COmxILVideoPort(void)
	?SetFsm@COmxILCallbackManager@@UAEXAAVCOmxILFsm@@@Z @ 49 NONAME ; void COmxILCallbackManager::SetFsm(class COmxILFsm &)
	?ErrorEventNotification@COmxILInContextCallbackManager@@UAE?AW4OMX_ERRORTYPE@@W42@@Z @ 50 NONAME ; enum OMX_ERRORTYPE COmxILInContextCallbackManager::ErrorEventNotification(enum OMX_ERRORTYPE)
	?GetParameter@COmxILVideoPort@@UBE?AW4OMX_ERRORTYPE@@W4OMX_INDEXTYPE@@PAX@Z @ 51 NONAME ; enum OMX_ERRORTYPE COmxILVideoPort::GetParameter(enum OMX_INDEXTYPE, void *) const
	?BufferDoneNotification@COmxILInContextCallbackManager@@UAE?AW4OMX_ERRORTYPE@@PAUOMX_BUFFERHEADERTYPE@@KW4OMX_DIRTYPE@@@Z @ 52 NONAME ; enum OMX_ERRORTYPE COmxILInContextCallbackManager::BufferDoneNotification(struct OMX_BUFFERHEADERTYPE *, unsigned long, enum OMX_DIRTYPE)
	?GetComponentVersion@COmxILConfigManager@@UBE?AW4OMX_ERRORTYPE@@PADPATOMX_VERSIONTYPE@@1PAY0IA@E@Z @ 53 NONAME ; enum OMX_ERRORTYPE COmxILConfigManager::GetComponentVersion(char *, union OMX_VERSIONTYPE *, union OMX_VERSIONTYPE *, unsigned char [128] *) const
	?DoEventNotification@XOmxILCallbackManagerIfImpl@@MAE?AW4OMX_ERRORTYPE@@W4OMX_EVENTTYPE@@KKPAD@Z @ 54 NONAME ; enum OMX_ERRORTYPE XOmxILCallbackManagerIfImpl::DoEventNotification(enum OMX_EVENTTYPE, unsigned long, unsigned long, char *)
	?SetParameter@COmxILOtherPort@@UAE?AW4OMX_ERRORTYPE@@W4OMX_INDEXTYPE@@PBXAAH@Z @ 55 NONAME ; enum OMX_ERRORTYPE COmxILOtherPort::SetParameter(enum OMX_INDEXTYPE, void const *, int &)
	??1COmxILAudioPort@@UAE@XZ @ 56 NONAME ; COmxILAudioPort::~COmxILAudioPort(void)
	?RegisterComponentHandle@COmxILInContextCallbackManager@@UAE?AW4OMX_ERRORTYPE@@PAX@Z @ 57 NONAME ; enum OMX_ERRORTYPE COmxILInContextCallbackManager::RegisterComponentHandle(void *)
	?SetParameter@COmxILAudioPort@@UAE?AW4OMX_ERRORTYPE@@W4OMX_INDEXTYPE@@PBXAAH@Z @ 58 NONAME ; enum OMX_ERRORTYPE COmxILAudioPort::SetParameter(enum OMX_INDEXTYPE, void const *, int &)
	?DoRegisterComponentHandle@XOmxILCallbackManagerIfImpl@@MAE?AW4OMX_ERRORTYPE@@PAX@Z @ 59 NONAME ; enum OMX_ERRORTYPE XOmxILCallbackManagerIfImpl::DoRegisterComponentHandle(void *)
	?PortSettingsChangeNotification@COmxILInContextCallbackManager@@UAE?AW4OMX_ERRORTYPE@@KIABVTDesC8@@@Z @ 60 NONAME ; enum OMX_ERRORTYPE COmxILInContextCallbackManager::PortSettingsChangeNotification(unsigned long, unsigned int, class TDesC8 const &)
	?GetLocalOmxConfigIndexes@COmxILAudioPort@@UBE?AW4OMX_ERRORTYPE@@AAV?$RArray@I@@@Z @ 61 NONAME ; enum OMX_ERRORTYPE COmxILAudioPort::GetLocalOmxConfigIndexes(class RArray<unsigned int> &) const
	??1COmxILConfigManager@@UAE@XZ @ 62 NONAME ; COmxILConfigManager::~COmxILConfigManager(void)
	?ConstructL@COmxILConfigManager@@IAEXABVTDesC8@@ABTOMX_VERSIONTYPE@@ABV?$RPointerArray@VTDesC8@@@@@Z @ 63 NONAME ; void COmxILConfigManager::ConstructL(class TDesC8 const &, union OMX_VERSIONTYPE const &, class RPointerArray<class TDesC8> const &)
	?RegisterILClientCallbacks@COmxILCallbackManager@@UAE?AW4OMX_ERRORTYPE@@PBUOMX_CALLBACKTYPE@@PAX@Z @ 64 NONAME ; enum OMX_ERRORTYPE COmxILCallbackManager::RegisterILClientCallbacks(struct OMX_CALLBACKTYPE const *, void *)
	?NewL@COmxILClientClockPort@@SAPAV1@ABVTOmxILCommonPortData@@ABV?$RArray@W4OMX_OTHER_FORMATTYPE@@@@@Z @ 65 NONAME ; class COmxILClientClockPort * COmxILClientClockPort::NewL(class TOmxILCommonPortData const &, class RArray<enum OMX_OTHER_FORMATTYPE> const &)
	?NewL@COmxILConfigManager@@SAPAV1@AAVMOmxILPortManagerIf@@ABVTDesC8@@ABTOMX_VERSIONTYPE@@ABV?$RPointerArray@VTDesC8@@@@@Z @ 66 NONAME ; class COmxILConfigManager * COmxILConfigManager::NewL(class MOmxILPortManagerIf &, class TDesC8 const &, union OMX_VERSIONTYPE const &, class RPointerArray<class TDesC8> const &)
	?GetExtensionIndex@COmxILConfigManager@@UBE?AW4OMX_ERRORTYPE@@PADPAW4OMX_INDEXTYPE@@@Z @ 67 NONAME ; enum OMX_ERRORTYPE COmxILConfigManager::GetExtensionIndex(char *, enum OMX_INDEXTYPE *) const
	?GetLocalOmxParamIndexes@COmxILVideoPort@@UBE?AW4OMX_ERRORTYPE@@AAV?$RArray@I@@@Z @ 68 NONAME ; enum OMX_ERRORTYPE COmxILVideoPort::GetLocalOmxParamIndexes(class RArray<unsigned int> &) const
	?DoBufferAllocation@COmxILPort@@MAE?AW4OMX_ERRORTYPE@@KAAPAEAAPAX1PAX@Z @ 69 NONAME ; enum OMX_ERRORTYPE COmxILPort::DoBufferAllocation(unsigned long, unsigned char * &, void * &, void * &, void *)
	?EventNotification@COmxILInContextCallbackManager@@UAE?AW4OMX_ERRORTYPE@@W4OMX_EVENTTYPE@@KKPAD@Z @ 70 NONAME ; enum OMX_ERRORTYPE COmxILInContextCallbackManager::EventNotification(enum OMX_EVENTTYPE, unsigned long, unsigned long, char *)
	??0COmxILComponent@@IAE@XZ @ 71 NONAME ; COmxILComponent::COmxILComponent(void)
	?SetPortManager@COmxILInContextCallbackManager@@UAEXAAVMOmxILPortManagerIf@@@Z @ 72 NONAME ; void COmxILInContextCallbackManager::SetPortManager(class MOmxILPortManagerIf &)
	?FreeTunnel@COmxILPort@@UAE?AW4OMX_ERRORTYPE@@AAH@Z @ 73 NONAME ; enum OMX_ERRORTYPE COmxILPort::FreeTunnel(int &)
	?RegisterTunnelCallback@COmxILCallbackManager@@UAE?AW4OMX_ERRORTYPE@@KW4OMX_DIRTYPE@@PAXK@Z @ 74 NONAME ; enum OMX_ERRORTYPE COmxILCallbackManager::RegisterTunnelCallback(unsigned long, enum OMX_DIRTYPE, void *, unsigned long)
	?HasAllBuffersAtHome@COmxILPort@@UBEHXZ @ 75 NONAME ; int COmxILPort::HasAllBuffersAtHome(void) const
	?SetComponentRoleDefaults@COmxILPort@@UAE?AW4OMX_ERRORTYPE@@I@Z @ 76 NONAME ; enum OMX_ERRORTYPE COmxILPort::SetComponentRoleDefaults(unsigned int)
	?BufferDoneNotification@COmxILCallbackManager@@UAE?AW4OMX_ERRORTYPE@@PAUOMX_BUFFERHEADERTYPE@@KW4OMX_DIRTYPE@@@Z @ 77 NONAME ; enum OMX_ERRORTYPE COmxILCallbackManager::BufferDoneNotification(struct OMX_BUFFERHEADERTYPE *, unsigned long, enum OMX_DIRTYPE)
	?GetParameter@COmxILAudioPort@@UBE?AW4OMX_ERRORTYPE@@W4OMX_INDEXTYPE@@PAX@Z @ 78 NONAME ; enum OMX_ERRORTYPE COmxILAudioPort::GetParameter(enum OMX_INDEXTYPE, void *) const
	?DoSetPortManager@XOmxILCallbackManagerIfImpl@@MAEXAAVMOmxILPortManagerIf@@@Z @ 79 NONAME ; void XOmxILCallbackManagerIfImpl::DoSetPortManager(class MOmxILPortManagerIf &)
	?GetParameter@COmxILImagePort@@UBE?AW4OMX_ERRORTYPE@@W4OMX_INDEXTYPE@@PAX@Z @ 80 NONAME ; enum OMX_ERRORTYPE COmxILImagePort::GetParameter(enum OMX_INDEXTYPE, void *) const
	?NewL@COmxILPortManager@@SAPAV1@AAVCOmxILProcessingFunction@@AAVMOmxILCallbackManagerIf@@ABTOMX_VERSIONTYPE@@KKKKKKKKW4OMX_BOOL@@@Z @ 81 NONAME ; class COmxILPortManager * COmxILPortManager::NewL(class COmxILProcessingFunction &, class MOmxILCallbackManagerIf &, union OMX_VERSIONTYPE const &, unsigned long, unsigned long, unsigned long, unsigned long, unsigned long, unsigned long, unsigned long, unsigned long, enum OMX_BOOL)
	?PopulateTunnel@COmxILPort@@UAE?AW4OMX_ERRORTYPE@@AAH@Z @ 82 NONAME ; enum OMX_ERRORTYPE COmxILPort::PopulateTunnel(int &)
	?GetLocalOmxParamIndexes@COmxILImagePort@@UBE?AW4OMX_ERRORTYPE@@AAV?$RArray@I@@@Z @ 83 NONAME ; enum OMX_ERRORTYPE COmxILImagePort::GetLocalOmxParamIndexes(class RArray<unsigned int> &) const
	?TransitionCompleteNotification@COmxILInContextCallbackManager@@UAE?AW4OMX_ERRORTYPE@@W4OMX_STATETYPE@@@Z @ 84 NONAME ; enum OMX_ERRORTYPE COmxILInContextCallbackManager::TransitionCompleteNotification(enum OMX_STATETYPE)
	?CommandCompleteNotification@COmxILInContextCallbackManager@@UAE?AW4OMX_ERRORTYPE@@W4OMX_COMMANDTYPE@@K@Z @ 85 NONAME ; enum OMX_ERRORTYPE COmxILInContextCallbackManager::CommandCompleteNotification(enum OMX_COMMANDTYPE, unsigned long)
	?SetPortManager@COmxILCallbackManager@@UAEXAAVMOmxILPortManagerIf@@@Z @ 86 NONAME ; void COmxILCallbackManager::SetPortManager(class MOmxILPortManagerIf &)
	?CommandCompleteNotification@COmxILCallbackManager@@UAE?AW4OMX_ERRORTYPE@@W4OMX_COMMANDTYPE@@K@Z @ 87 NONAME ; enum OMX_ERRORTYPE COmxILCallbackManager::CommandCompleteNotification(enum OMX_COMMANDTYPE, unsigned long)
	?CheckOmxStructSizeAndVersion@TOmxILUtil@@SA?AW4OMX_ERRORTYPE@@PAXK@Z @ 88 NONAME ; enum OMX_ERRORTYPE TOmxILUtil::CheckOmxStructSizeAndVersion(void *, unsigned long)
	?IsBufferAtHome@COmxILPort@@UBEHPAUOMX_BUFFERHEADERTYPE@@@Z @ 89 NONAME ; int COmxILPort::IsBufferAtHome(struct OMX_BUFFERHEADERTYPE *) const
	?ConstructL@COmxILAudioPort@@MAEXABV?$RArray@W4OMX_AUDIO_CODINGTYPE@@@@@Z @ 90 NONAME ; void COmxILAudioPort::ConstructL(class RArray<enum OMX_AUDIO_CODINGTYPE> const &)
	?GetLocalOmxConfigIndexes@COmxILVideoPort@@UBE?AW4OMX_ERRORTYPE@@AAV?$RArray@I@@@Z @ 91 NONAME ; enum OMX_ERRORTYPE COmxILVideoPort::GetLocalOmxConfigIndexes(class RArray<unsigned int> &) const
	?ClockBufferDoneNotification@COmxILInContextCallbackManager@@UAE?AW4OMX_ERRORTYPE@@PAUOMX_BUFFERHEADERTYPE@@KW4OMX_DIRTYPE@@@Z @ 92 NONAME ; enum OMX_ERRORTYPE COmxILInContextCallbackManager::ClockBufferDoneNotification(struct OMX_BUFFERHEADERTYPE *, unsigned long, enum OMX_DIRTYPE)
	??0COmxILProcessingFunction@@IAE@AAVMOmxILCallbackNotificationIf@@@Z @ 93 NONAME ; COmxILProcessingFunction::COmxILProcessingFunction(class MOmxILCallbackNotificationIf &)
	?DoPortReconfiguration@COmxILPort@@UAE?AW4OMX_ERRORTYPE@@IABVTDesC8@@AAW4OMX_EVENTTYPE@@@Z @ 94 NONAME ; enum OMX_ERRORTYPE COmxILPort::DoPortReconfiguration(unsigned int, class TDesC8 const &, enum OMX_EVENTTYPE &)
	?DoPortSettingsChangeNotification@XOmxILCallbackManagerIfImpl@@MAE?AW4OMX_ERRORTYPE@@KIABVTDesC8@@@Z @ 95 NONAME ; enum OMX_ERRORTYPE XOmxILCallbackManagerIfImpl::DoPortSettingsChangeNotification(unsigned long, unsigned int, class TDesC8 const &)
	?PopulateBuffer@COmxILPort@@UAE?AW4OMX_ERRORTYPE@@PAPAUOMX_BUFFERHEADERTYPE@@PAXKPAEAAH@Z @ 96 NONAME ; enum OMX_ERRORTYPE COmxILPort::PopulateBuffer(struct OMX_BUFFERHEADERTYPE * *, void *, unsigned long, unsigned char *, int &)
	??0COmxILVideoPort@@IAE@ABVTOmxILCommonPortData@@ABV?$RArray@W4OMX_VIDEO_CODINGTYPE@@@@ABV?$RArray@W4OMX_COLOR_FORMATTYPE@@@@@Z @ 97 NONAME ; COmxILVideoPort::COmxILVideoPort(class TOmxILCommonPortData const &, class RArray<enum OMX_VIDEO_CODINGTYPE> const &, class RArray<enum OMX_COLOR_FORMATTYPE> const &)
	??1COmxILOtherPort@@UAE@XZ @ 98 NONAME ; COmxILOtherPort::~COmxILOtherPort(void)
	??1COmxILInContextCallbackManager@@UAE@XZ @ 99 NONAME ; COmxILInContextCallbackManager::~COmxILInContextCallbackManager(void)
	?GetLocalOmxParamIndexes@COmxILPort@@UBE?AW4OMX_ERRORTYPE@@AAV?$RArray@I@@@Z @ 100 NONAME ; enum OMX_ERRORTYPE COmxILPort::GetLocalOmxParamIndexes(class RArray<unsigned int> &) const
	?CleanUpPort@COmxILPort@@IAEXXZ @ 101 NONAME ; void COmxILPort::CleanUpPort(void)
	?FreeBuffer@COmxILPort@@UAE?AW4OMX_ERRORTYPE@@PAUOMX_BUFFERHEADERTYPE@@AAH@Z @ 102 NONAME ; enum OMX_ERRORTYPE COmxILPort::FreeBuffer(struct OMX_BUFFERHEADERTYPE *, int &)
	?TunnelRequest@COmxILPort@@UAE?AW4OMX_ERRORTYPE@@PAXKPAUOMX_TUNNELSETUPTYPE@@@Z @ 103 NONAME ; enum OMX_ERRORTYPE COmxILPort::TunnelRequest(void *, unsigned long, struct OMX_TUNNELSETUPTYPE *)
	?GetParameter@COmxILConfigManager@@UBE?AW4OMX_ERRORTYPE@@W4OMX_INDEXTYPE@@PAX@Z @ 104 NONAME ; enum OMX_ERRORTYPE COmxILConfigManager::GetParameter(enum OMX_INDEXTYPE, void *) const
	?SetFsm@COmxILInContextCallbackManager@@UAEXAAVCOmxILFsm@@@Z @ 105 NONAME ; void COmxILInContextCallbackManager::SetFsm(class COmxILFsm &)
	?ConstructL@COmxILOtherPort@@MAEXABV?$RArray@W4OMX_OTHER_FORMATTYPE@@@@@Z @ 106 NONAME ; void COmxILOtherPort::ConstructL(class RArray<enum OMX_OTHER_FORMATTYPE> const &)
	?GetLocalOmxConfigIndexes@COmxILImagePort@@UBE?AW4OMX_ERRORTYPE@@AAV?$RArray@I@@@Z @ 107 NONAME ; enum OMX_ERRORTYPE COmxILImagePort::GetLocalOmxConfigIndexes(class RArray<unsigned int> &) const
	?ClearBufferContents@TOmxILUtil@@SAXPAUOMX_BUFFERHEADERTYPE@@@Z @ 108 NONAME ; void TOmxILUtil::ClearBufferContents(struct OMX_BUFFERHEADERTYPE *)
	?SetParameter@COmxILImagePort@@UAE?AW4OMX_ERRORTYPE@@W4OMX_INDEXTYPE@@PBXAAH@Z @ 109 NONAME ; enum OMX_ERRORTYPE COmxILImagePort::SetParameter(enum OMX_INDEXTYPE, void const *, int &)
	?DoBufferDoneNotification@XOmxILCallbackManagerIfImpl@@MAE?AW4OMX_ERRORTYPE@@PAUOMX_BUFFERHEADERTYPE@@KW4OMX_DIRTYPE@@@Z @ 110 NONAME ; enum OMX_ERRORTYPE XOmxILCallbackManagerIfImpl::DoBufferDoneNotification(struct OMX_BUFFERHEADERTYPE *, unsigned long, enum OMX_DIRTYPE)
	?GetLocalOmxParamIndexes@COmxILOtherPort@@UBE?AW4OMX_ERRORTYPE@@AAV?$RArray@I@@@Z @ 111 NONAME ; enum OMX_ERRORTYPE COmxILOtherPort::GetLocalOmxParamIndexes(class RArray<unsigned int> &) const
	?TransitionCompleteNotification@COmxILCallbackManager@@UAE?AW4OMX_ERRORTYPE@@W4OMX_STATETYPE@@@Z @ 112 NONAME ; enum OMX_ERRORTYPE COmxILCallbackManager::TransitionCompleteNotification(enum OMX_STATETYPE)
	?BufferRemovalIndication@COmxILInContextCallbackManager@@UAEHPAUOMX_BUFFERHEADERTYPE@@W4OMX_DIRTYPE@@@Z @ 113 NONAME ; int COmxILInContextCallbackManager::BufferRemovalIndication(struct OMX_BUFFERHEADERTYPE *, enum OMX_DIRTYPE)
	?SignalOrPropagateBufferMarks@XOmxILCallbackManagerIfImpl@@MAEXPAUOMX_BUFFERHEADERTYPE@@K@Z @ 114 NONAME ; void XOmxILCallbackManagerIfImpl::SignalOrPropagateBufferMarks(struct OMX_BUFFERHEADERTYPE *, unsigned long)
	?DeregisterTunnelCallback@COmxILInContextCallbackManager@@UAE?AW4OMX_ERRORTYPE@@K@Z @ 115 NONAME ; enum OMX_ERRORTYPE COmxILInContextCallbackManager::DeregisterTunnelCallback(unsigned long)
	?DoBufferUnwrapping@COmxILPort@@MAEXPAX000@Z @ 116 NONAME ; void COmxILPort::DoBufferUnwrapping(void *, void *, void *, void *)
	?ComponentRoleEnum@COmxILConfigManager@@QBE?AW4OMX_ERRORTYPE@@PAEK@Z @ 117 NONAME ; enum OMX_ERRORTYPE COmxILConfigManager::ComponentRoleEnum(unsigned char *, unsigned long) const
	?UpdateColorFormat@COmxILVideoPort@@IAEHAAW4OMX_COLOR_FORMATTYPE@@W42@AAH@Z @ 118 NONAME ; int COmxILVideoPort::UpdateColorFormat(enum OMX_COLOR_FORMATTYPE &, enum OMX_COLOR_FORMATTYPE, int &)
	?DoRegisterBufferMarkPropagationPort@XOmxILCallbackManagerIfImpl@@MAE?AW4OMX_ERRORTYPE@@KK@Z @ 119 NONAME ; enum OMX_ERRORTYPE XOmxILCallbackManagerIfImpl::DoRegisterBufferMarkPropagationPort(unsigned long, unsigned long)
	??0COmxILOtherPort@@IAE@ABVTOmxILCommonPortData@@@Z @ 120 NONAME ; COmxILOtherPort::COmxILOtherPort(class TOmxILCommonPortData const &)
	?GetConfig@COmxILPort@@UBE?AW4OMX_ERRORTYPE@@W4OMX_INDEXTYPE@@PAX@Z @ 121 NONAME ; enum OMX_ERRORTYPE COmxILPort::GetConfig(enum OMX_INDEXTYPE, void *) const
	??0COmxILAudioPort@@IAE@ABVTOmxILCommonPortData@@@Z @ 122 NONAME ; COmxILAudioPort::COmxILAudioPort(class TOmxILCommonPortData const &)
	??0XOmxILCallbackManagerIfImpl@@IAE@PAX0PAUOMX_CALLBACKTYPE@@@Z @ 123 NONAME ; XOmxILCallbackManagerIfImpl::XOmxILCallbackManagerIfImpl(void *, void *, struct OMX_CALLBACKTYPE *)
	?UpdateCodingType@COmxILVideoPort@@IAEHAAW4OMX_VIDEO_CODINGTYPE@@W42@AAH@Z @ 124 NONAME ; int COmxILVideoPort::UpdateCodingType(enum OMX_VIDEO_CODINGTYPE &, enum OMX_VIDEO_CODINGTYPE, int &)
	?DoErrorEventNotification@XOmxILCallbackManagerIfImpl@@MAE?AW4OMX_ERRORTYPE@@W42@@Z @ 125 NONAME ; enum OMX_ERRORTYPE XOmxILCallbackManagerIfImpl::DoErrorEventNotification(enum OMX_ERRORTYPE)
	?DeregisterTunnelCallback@COmxILCallbackManager@@UAE?AW4OMX_ERRORTYPE@@K@Z @ 126 NONAME ; enum OMX_ERRORTYPE COmxILCallbackManager::DeregisterTunnelCallback(unsigned long)
	??1COmxILProcessingFunction@@UAE@XZ @ 127 NONAME ; COmxILProcessingFunction::~COmxILProcessingFunction(void)
	?NewL@COmxILInContextCallbackManager@@SAPAV1@PAX0PAUOMX_CALLBACKTYPE@@@Z @ 128 NONAME ; class COmxILInContextCallbackManager * COmxILInContextCallbackManager::NewL(void *, void *, struct OMX_CALLBACKTYPE *)
	?SetParameter@COmxILPort@@UAE?AW4OMX_ERRORTYPE@@W4OMX_INDEXTYPE@@PBXAAH@Z @ 129 NONAME ; enum OMX_ERRORTYPE COmxILPort::SetParameter(enum OMX_INDEXTYPE, void const *, int &)
	??1COmxILComponent@@UAE@XZ @ 130 NONAME ; COmxILComponent::~COmxILComponent(void)
	?SetTransitionToEnabled@COmxILPort@@UAEXXZ @ 131 NONAME ; void COmxILPort::SetTransitionToEnabled(void)
	?DoBufferWrapping@COmxILPort@@MAE?AW4OMX_ERRORTYPE@@KPAEAAPAX1PAX@Z @ 132 NONAME ; enum OMX_ERRORTYPE COmxILPort::DoBufferWrapping(unsigned long, unsigned char *, void * &, void * &, void *)
	?BufferRemovalIndication@COmxILCallbackManager@@UAEHPAUOMX_BUFFERHEADERTYPE@@W4OMX_DIRTYPE@@@Z @ 133 NONAME ; int COmxILCallbackManager::BufferRemovalIndication(struct OMX_BUFFERHEADERTYPE *, enum OMX_DIRTYPE)
	?ErrorEventNotification@COmxILCallbackManager@@UAE?AW4OMX_ERRORTYPE@@W42@@Z @ 134 NONAME ; enum OMX_ERRORTYPE COmxILCallbackManager::ErrorEventNotification(enum OMX_ERRORTYPE)
	?SetBufferReturned@COmxILPort@@UAEHPAUOMX_BUFFERHEADERTYPE@@@Z @ 135 NONAME ; int COmxILPort::SetBufferReturned(struct OMX_BUFFERHEADERTYPE *)
	?DoBufferDeallocation@COmxILPort@@MAEXPAX000@Z @ 136 NONAME ; void COmxILPort::DoBufferDeallocation(void *, void *, void *, void *)
	?GetLocalOmxConfigIndexes@COmxILOtherPort@@UBE?AW4OMX_ERRORTYPE@@AAV?$RArray@I@@@Z @ 137 NONAME ; enum OMX_ERRORTYPE COmxILOtherPort::GetLocalOmxConfigIndexes(class RArray<unsigned int> &) const

