EXPORTS
	_Z20NewTSUMmTsthSuite12Lv @ 1 NONAME
	_ZTI10CTestSuite @ 2 NONAME ; #<TI>#
	_ZTI12CTestIniData @ 3 NONAME ; #<TI>#
	_ZTI16RTSUMmTsthStep12 @ 4 NONAME ; #<TI>#
	_ZTI16RTestMmTsthU1201 @ 5 NONAME ; #<TI>#
	_ZTI16RTestMmTsthU1202 @ 6 NONAME ; #<TI>#
	_ZTI16RTestMmTsthU1203 @ 7 NONAME ; #<TI>#
	_ZTI16RTestMmTsthU1221 @ 8 NONAME ; #<TI>#
	_ZTI16RTestMmTsthU1222 @ 9 NONAME ; #<TI>#
	_ZTI17CTSUMmTsthSuite12 @ 10 NONAME ; #<TI>#
	_ZTI20RTestStepVirtualStub @ 11 NONAME ; #<TI>#
	_ZTI21CTestSuiteVirtualStub @ 12 NONAME ; #<TI>#
	_ZTI29TIntegrationTestLog16Overflow @ 13 NONAME ; #<TI>#
	_ZTI9CTestStep @ 14 NONAME ; #<TI>#
	_ZTI9RTestStep @ 15 NONAME ; #<TI>#
	_ZTV10CTestSuite @ 16 NONAME ; #<VT>#
	_ZTV12CTestIniData @ 17 NONAME ; #<VT>#
	_ZTV16RTSUMmTsthStep12 @ 18 NONAME ; #<VT>#
	_ZTV16RTestMmTsthU1201 @ 19 NONAME ; #<VT>#
	_ZTV16RTestMmTsthU1202 @ 20 NONAME ; #<VT>#
	_ZTV16RTestMmTsthU1203 @ 21 NONAME ; #<VT>#
	_ZTV16RTestMmTsthU1221 @ 22 NONAME ; #<VT>#
	_ZTV16RTestMmTsthU1222 @ 23 NONAME ; #<VT>#
	_ZTV17CTSUMmTsthSuite12 @ 24 NONAME ; #<VT>#
	_ZTV20RTestStepVirtualStub @ 25 NONAME ; #<VT>#
	_ZTV21CTestSuiteVirtualStub @ 26 NONAME ; #<VT>#
	_ZTV29TIntegrationTestLog16Overflow @ 27 NONAME ; #<VT>#
	_ZTV9CTestStep @ 28 NONAME ; #<VT>#
	_ZTV9RTestStep @ 29 NONAME ; #<VT>#
	_ZTI14RAsyncTestStep @ 30 NONAME
	_ZTI4CLog @ 31 NONAME
	_ZTV14RAsyncTestStep @ 32 NONAME
	_ZTV4CLog @ 33 NONAME

